; ModuleID = '2/1241.c'
source_filename = "2/1241.c"
target datalayout = "e-m:e-p270:32:32-p271:32:32-p272:64:64-i64:64-f80:128-n8:16:32:64-S128"
target triple = "x86_64-pc-linux-gnu"

%struct.Bookinfo = type { i32, [27 x i8] }

@.str = private unnamed_addr constant [3 x i8] c"%d\00", align 1
@.str.1 = private unnamed_addr constant [6 x i8] c"%d %s\00", align 1
@.str.2 = private unnamed_addr constant [7 x i8] c"%c\0A%d\0A\00", align 1
@.str.3 = private unnamed_addr constant [4 x i8] c"%d\0A\00", align 1

; Function Attrs: noinline nounwind uwtable
define dso_local i32 @main() #0 {
  %1 = alloca i32, align 4
  %2 = alloca i32, align 4
  %3 = alloca i32, align 4
  %4 = alloca i32, align 4
  %5 = alloca [1000 x %struct.Bookinfo], align 16
  %6 = alloca [26 x i32], align 16
  %7 = alloca i32, align 4
  %8 = alloca i32, align 4
  %9 = alloca i32, align 4
  %10 = alloca i32, align 4
  store i32 0, i32* %1, align 4
  %11 = call i32 (i8*, ...) @__isoc99_scanf(i8* getelementptr inbounds ([3 x i8], [3 x i8]* @.str, i64 0, i64 0), i32* %2)
  store i32 0, i32* %3, align 4
  br label %12

12:                                               ; preds = %27, %0
  %13 = load i32, i32* %3, align 4
  %14 = load i32, i32* %2, align 4
  %15 = icmp slt i32 %13, %14
  br i1 %15, label %16, label %30

16:                                               ; preds = %12
  %17 = load i32, i32* %3, align 4
  %18 = sext i32 %17 to i64
  %19 = getelementptr inbounds [1000 x %struct.Bookinfo], [1000 x %struct.Bookinfo]* %5, i64 0, i64 %18
  %20 = getelementptr inbounds %struct.Bookinfo, %struct.Bookinfo* %19, i32 0, i32 0
  %21 = load i32, i32* %3, align 4
  %22 = sext i32 %21 to i64
  %23 = getelementptr inbounds [1000 x %struct.Bookinfo], [1000 x %struct.Bookinfo]* %5, i64 0, i64 %22
  %24 = getelementptr inbounds %struct.Bookinfo, %struct.Bookinfo* %23, i32 0, i32 1
  %25 = getelementptr inbounds [27 x i8], [27 x i8]* %24, i64 0, i64 0
  %26 = call i32 (i8*, ...) @__isoc99_scanf(i8* getelementptr inbounds ([6 x i8], [6 x i8]* @.str.1, i64 0, i64 0), i32* %20, i8* %25)
  br label %27

27:                                               ; preds = %16
  %28 = load i32, i32* %3, align 4
  %29 = add nsw i32 %28, 1
  store i32 %29, i32* %3, align 4
  br label %12

30:                                               ; preds = %12
  %31 = bitcast [26 x i32]* %6 to i8*
  call void @llvm.memset.p0i8.i64(i8* align 16 %31, i8 0, i64 104, i1 false)
  store i32 0, i32* %3, align 4
  br label %32

32:                                               ; preds = %67, %30
  %33 = load i32, i32* %3, align 4
  %34 = load i32, i32* %2, align 4
  %35 = icmp slt i32 %33, %34
  br i1 %35, label %36, label %70

36:                                               ; preds = %32
  %37 = load i32, i32* %3, align 4
  %38 = sext i32 %37 to i64
  %39 = getelementptr inbounds [1000 x %struct.Bookinfo], [1000 x %struct.Bookinfo]* %5, i64 0, i64 %38
  %40 = getelementptr inbounds %struct.Bookinfo, %struct.Bookinfo* %39, i32 0, i32 1
  %41 = getelementptr inbounds [27 x i8], [27 x i8]* %40, i64 0, i64 0
  %42 = call i64 @strlen(i8* %41) #4
  %43 = trunc i64 %42 to i32
  store i32 %43, i32* %9, align 4
  store i32 0, i32* %4, align 4
  br label %44

44:                                               ; preds = %63, %36
  %45 = load i32, i32* %4, align 4
  %46 = load i32, i32* %9, align 4
  %47 = icmp slt i32 %45, %46
  br i1 %47, label %48, label %66

48:                                               ; preds = %44
  %49 = load i32, i32* %3, align 4
  %50 = sext i32 %49 to i64
  %51 = getelementptr inbounds [1000 x %struct.Bookinfo], [1000 x %struct.Bookinfo]* %5, i64 0, i64 %50
  %52 = getelementptr inbounds %struct.Bookinfo, %struct.Bookinfo* %51, i32 0, i32 1
  %53 = load i32, i32* %4, align 4
  %54 = sext i32 %53 to i64
  %55 = getelementptr inbounds [27 x i8], [27 x i8]* %52, i64 0, i64 %54
  %56 = load i8, i8* %55, align 1
  %57 = sext i8 %56 to i32
  %58 = sub nsw i32 %57, 65
  %59 = sext i32 %58 to i64
  %60 = getelementptr inbounds [26 x i32], [26 x i32]* %6, i64 0, i64 %59
  %61 = load i32, i32* %60, align 4
  %62 = add nsw i32 %61, 1
  store i32 %62, i32* %60, align 4
  br label %63

63:                                               ; preds = %48
  %64 = load i32, i32* %4, align 4
  %65 = add nsw i32 %64, 1
  store i32 %65, i32* %4, align 4
  br label %44

66:                                               ; preds = %44
  br label %67

67:                                               ; preds = %66
  %68 = load i32, i32* %3, align 4
  %69 = add nsw i32 %68, 1
  store i32 %69, i32* %3, align 4
  br label %32

70:                                               ; preds = %32
  %71 = getelementptr inbounds [26 x i32], [26 x i32]* %6, i64 0, i64 0
  %72 = load i32, i32* %71, align 16
  store i32 %72, i32* %7, align 4
  store i32 0, i32* %3, align 4
  br label %73

73:                                               ; preds = %90, %70
  %74 = load i32, i32* %3, align 4
  %75 = icmp slt i32 %74, 26
  br i1 %75, label %76, label %93

76:                                               ; preds = %73
  %77 = load i32, i32* %3, align 4
  %78 = sext i32 %77 to i64
  %79 = getelementptr inbounds [26 x i32], [26 x i32]* %6, i64 0, i64 %78
  %80 = load i32, i32* %79, align 4
  %81 = load i32, i32* %7, align 4
  %82 = icmp sge i32 %80, %81
  br i1 %82, label %83, label %89

83:                                               ; preds = %76
  %84 = load i32, i32* %3, align 4
  %85 = sext i32 %84 to i64
  %86 = getelementptr inbounds [26 x i32], [26 x i32]* %6, i64 0, i64 %85
  %87 = load i32, i32* %86, align 4
  store i32 %87, i32* %7, align 4
  %88 = load i32, i32* %3, align 4
  store i32 %88, i32* %8, align 4
  br label %89

89:                                               ; preds = %83, %76
  br label %90

90:                                               ; preds = %89
  %91 = load i32, i32* %3, align 4
  %92 = add nsw i32 %91, 1
  store i32 %92, i32* %3, align 4
  br label %73

93:                                               ; preds = %73
  %94 = load i32, i32* %8, align 4
  %95 = add nsw i32 %94, 65
  %96 = load i32, i32* %7, align 4
  %97 = call i32 (i8*, ...) @printf(i8* getelementptr inbounds ([7 x i8], [7 x i8]* @.str.2, i64 0, i64 0), i32 %95, i32 %96)
  store i32 0, i32* %3, align 4
  br label %98

98:                                               ; preds = %139, %93
  %99 = load i32, i32* %3, align 4
  %100 = load i32, i32* %2, align 4
  %101 = icmp slt i32 %99, %100
  br i1 %101, label %102, label %142

102:                                              ; preds = %98
  %103 = load i32, i32* %3, align 4
  %104 = sext i32 %103 to i64
  %105 = getelementptr inbounds [1000 x %struct.Bookinfo], [1000 x %struct.Bookinfo]* %5, i64 0, i64 %104
  %106 = getelementptr inbounds %struct.Bookinfo, %struct.Bookinfo* %105, i32 0, i32 1
  %107 = getelementptr inbounds [27 x i8], [27 x i8]* %106, i64 0, i64 0
  %108 = call i64 @strlen(i8* %107) #4
  %109 = trunc i64 %108 to i32
  store i32 %109, i32* %10, align 4
  store i32 0, i32* %4, align 4
  br label %110

110:                                              ; preds = %135, %102
  %111 = load i32, i32* %4, align 4
  %112 = load i32, i32* %10, align 4
  %113 = icmp slt i32 %111, %112
  br i1 %113, label %114, label %138

114:                                              ; preds = %110
  %115 = load i32, i32* %3, align 4
  %116 = sext i32 %115 to i64
  %117 = getelementptr inbounds [1000 x %struct.Bookinfo], [1000 x %struct.Bookinfo]* %5, i64 0, i64 %116
  %118 = getelementptr inbounds %struct.Bookinfo, %struct.Bookinfo* %117, i32 0, i32 1
  %119 = load i32, i32* %4, align 4
  %120 = sext i32 %119 to i64
  %121 = getelementptr inbounds [27 x i8], [27 x i8]* %118, i64 0, i64 %120
  %122 = load i8, i8* %121, align 1
  %123 = sext i8 %122 to i32
  %124 = load i32, i32* %8, align 4
  %125 = add nsw i32 %124, 65
  %126 = icmp eq i32 %123, %125
  br i1 %126, label %127, label %134

127:                                              ; preds = %114
  %128 = load i32, i32* %3, align 4
  %129 = sext i32 %128 to i64
  %130 = getelementptr inbounds [1000 x %struct.Bookinfo], [1000 x %struct.Bookinfo]* %5, i64 0, i64 %129
  %131 = getelementptr inbounds %struct.Bookinfo, %struct.Bookinfo* %130, i32 0, i32 0
  %132 = load i32, i32* %131, align 16
  %133 = call i32 (i8*, ...) @printf(i8* getelementptr inbounds ([4 x i8], [4 x i8]* @.str.3, i64 0, i64 0), i32 %132)
  br label %138

134:                                              ; preds = %114
  br label %135

135:                                              ; preds = %134
  %136 = load i32, i32* %4, align 4
  %137 = add nsw i32 %136, 1
  store i32 %137, i32* %4, align 4
  br label %110

138:                                              ; preds = %127, %110
  br label %139

139:                                              ; preds = %138
  %140 = load i32, i32* %3, align 4
  %141 = add nsw i32 %140, 1
  store i32 %141, i32* %3, align 4
  br label %98

142:                                              ; preds = %98
  %143 = load i32, i32* %1, align 4
  ret i32 %143
}

declare dso_local i32 @__isoc99_scanf(i8*, ...) #1

; Function Attrs: argmemonly nounwind willreturn
declare void @llvm.memset.p0i8.i64(i8* nocapture writeonly, i8, i64, i1 immarg) #2

; Function Attrs: nounwind readonly
declare dso_local i64 @strlen(i8*) #3

declare dso_local i32 @printf(i8*, ...) #1


!llvm.module.flags = !{!0}
!llvm.ident = !{!1}

!0 = !{i32 1, !"wchar_size", i32 4}
!1 = !{!"clang version 10.0.0-4ubuntu1 "}
